; Function Attrs: nounwind sspstrong uwtable
define dso_local noundef i64 @rb_io_set_timeout(i64 noundef returned %0, i64 noundef %1) #0 {
  %3 = and i64 %1, -5
  %.not = icmp eq i64 %3, 0
  br i1 %.not, label %6, label %4

4:                                                ; preds = %2
  %5 = tail call { i64, i64 } @rb_time_interval(i64 noundef %1) #28
  br label %6

6:                                                ; preds = %4, %2
  %7 = inttoptr i64 %0 to ptr
  %8 = getelementptr inbounds nuw i8, ptr %7, i64 16
  %9 = load ptr, ptr %8, align 8, !tbaa !29
  %.not.i.i = icmp eq ptr %9, null
  br i1 %.not.i.i, label %10, label %rb_io_get_fptr.exit

10:                                               ; preds = %6
  %11 = load i64, ptr @rb_eIOError, align 8, !tbaa !23
  tail call void (i64, ptr, ...) @rb_raise(i64 noundef %11, ptr noundef nonnull @.str.4) #30
  unreachable

rb_io_get_fptr.exit:                              ; preds = %6
  %12 = getelementptr inbounds nuw i8, ptr %9, i64 200
  store i64 %1, ptr %12, align 8, !tbaa !33
  ret i64 %0
}